target datalayout = "e-m:e-p270:32:32-p271:32:32-p272:64:64-i64:64-i128:128-f80:128-n8:16:32:64-S128"
target triple = "x86_64-pc-linux-gnu"

%struct.negotiation_state = type { %struct.prio_queue, i32 }
%struct.prio_queue = type { ptr, i64, ptr, i64, i64, ptr }
%struct.commit = type { %struct.object, i64, ptr, ptr, i32 }
%struct.object = type { i32, %struct.object_id }
%struct.object_id = type { [32 x i8], i32 }
%struct.commit_list = type { ptr, ptr }

@the_repository = external global ptr, align 8

; Function Attrs: inlinehint nounwind uwtable
define internal i32 @repo_parse_commit(ptr noundef %0, ptr noundef %1) #3 {
  %3 = alloca ptr, align 8
  %4 = alloca ptr, align 8
  store ptr %0, ptr %3, align 8, !tbaa !25
  store ptr %1, ptr %4, align 8, !tbaa !27
  %5 = load ptr, ptr %3, align 8, !tbaa !25
  %6 = load ptr, ptr %4, align 8, !tbaa !27
  %7 = call i32 @repo_parse_commit_gently(ptr noundef %5, ptr noundef %6, i32 noundef 0)
  ret i32 %7
}

; Function Attrs: nounwind uwtable
define internal void @rev_list_push(ptr noundef %0, ptr noundef %1, i32 noundef %2) #0 {
  %4 = alloca ptr, align 8
  %5 = alloca ptr, align 8
  %6 = alloca i32, align 4
  store ptr %0, ptr %4, align 8, !tbaa !15
  store ptr %1, ptr %5, align 8, !tbaa !27
  store i32 %2, ptr %6, align 4, !tbaa !24
  %7 = load ptr, ptr %5, align 8, !tbaa !27
  %8 = getelementptr inbounds nuw %struct.commit, ptr %7, i32 0, i32 0
  %9 = load i32, ptr %8, align 8
  %10 = lshr i32 %9, 4
  %11 = load i32, ptr %6, align 4, !tbaa !24
  %12 = and i32 %10, %11
  %13 = icmp ne i32 %12, 0
  br i1 %13, label %47, label %14

14:                                               ; preds = %3
  %15 = load i32, ptr %6, align 4, !tbaa !24
  %16 = load ptr, ptr %5, align 8, !tbaa !27
  %17 = getelementptr inbounds nuw %struct.commit, ptr %16, i32 0, i32 0
  %18 = load i32, ptr %17, align 8
  %19 = lshr i32 %18, 4
  %20 = or i32 %19, %15
  %21 = load i32, ptr %17, align 8
  %22 = and i32 %20, 268435455
  %23 = shl i32 %22, 4
  %24 = and i32 %21, 15
  %25 = or i32 %24, %23
  store i32 %25, ptr %17, align 8
  %26 = load ptr, ptr @the_repository, align 8, !tbaa !25
  %27 = load ptr, ptr %5, align 8, !tbaa !27
  %28 = call i32 @repo_parse_commit(ptr noundef %26, ptr noundef %27)
  %29 = icmp ne i32 %28, 0
  br i1 %29, label %30, label %31

30:                                               ; preds = %14
  br label %47

31:                                               ; preds = %14
  %32 = load ptr, ptr %4, align 8, !tbaa !15
  %33 = getelementptr inbounds nuw %struct.negotiation_state, ptr %32, i32 0, i32 0
  %34 = load ptr, ptr %5, align 8, !tbaa !27
  call void @prio_queue_put(ptr noundef %33, ptr noundef %34)
  %35 = load ptr, ptr %5, align 8, !tbaa !27
  %36 = getelementptr inbounds nuw %struct.commit, ptr %35, i32 0, i32 0
  %37 = load i32, ptr %36, align 8
  %38 = lshr i32 %37, 4
  %39 = and i32 %38, 4
  %40 = icmp ne i32 %39, 0
  br i1 %40, label %46, label %41

41:                                               ; preds = %31
  %42 = load ptr, ptr %4, align 8, !tbaa !15
  %43 = getelementptr inbounds nuw %struct.negotiation_state, ptr %42, i32 0, i32 1
  %44 = load i32, ptr %43, align 8, !tbaa !36
  %45 = add nsw i32 %44, 1
  store i32 %45, ptr %43, align 8, !tbaa !36
  br label %46

46:                                               ; preds = %41, %31
  br label %47

47:                                               ; preds = %30, %46, %3
  ret void
}

; Function Attrs: nounwind uwtable
define internal void @mark_common(ptr noundef %0, ptr noundef %1, i32 noundef %2, i32 noundef %3) #0 {
  %5 = alloca ptr, align 8
  %6 = alloca ptr, align 8
  %7 = alloca i32, align 4
  %8 = alloca i32, align 4
  %9 = alloca %struct.prio_queue, align 8
  %10 = alloca i32, align 4
  %11 = alloca ptr, align 8
  %12 = alloca ptr, align 8
  %13 = alloca ptr, align 8
  store ptr %0, ptr %5, align 8, !tbaa !15
  store ptr %1, ptr %6, align 8, !tbaa !27
  store i32 %2, ptr %7, align 4, !tbaa !24
  store i32 %3, ptr %8, align 4, !tbaa !24
  call void @llvm.lifetime.start.p0(i64 48, ptr %9) #6
  call void @llvm.memset.p0.i64(ptr align 8 %9, i8 0, i64 48, i1 false)
  %14 = load ptr, ptr %6, align 8, !tbaa !27
  %15 = icmp ne ptr %14, null
  br i1 %15, label %16, label %23

16:                                               ; preds = %4
  %17 = load ptr, ptr %6, align 8, !tbaa !27
  %18 = getelementptr inbounds nuw %struct.commit, ptr %17, i32 0, i32 0
  %19 = load i32, ptr %18, align 8
  %20 = lshr i32 %19, 4
  %21 = and i32 %20, 4
  %22 = icmp ne i32 %21, 0
  br i1 %22, label %23, label %24

23:                                               ; preds = %16, %4
  store i32 1, ptr %10, align 4
  br label %154

24:                                               ; preds = %16
  %25 = load ptr, ptr %6, align 8, !tbaa !27
  call void @prio_queue_put(ptr noundef %9, ptr noundef %25)
  %26 = load i32, ptr %7, align 4, !tbaa !24
  %27 = icmp ne i32 %26, 0
  br i1 %27, label %58, label %28

28:                                               ; preds = %24
  %29 = load ptr, ptr %6, align 8, !tbaa !27
  %30 = getelementptr inbounds nuw %struct.commit, ptr %29, i32 0, i32 0
  %31 = load i32, ptr %30, align 8
  %32 = lshr i32 %31, 4
  %33 = or i32 %32, 4
  %34 = load i32, ptr %30, align 8
  %35 = and i32 %33, 268435455
  %36 = shl i32 %35, 4
  %37 = and i32 %34, 15
  %38 = or i32 %37, %36
  store i32 %38, ptr %30, align 8
  %39 = load ptr, ptr %6, align 8, !tbaa !27
  %40 = getelementptr inbounds nuw %struct.commit, ptr %39, i32 0, i32 0
  %41 = load i32, ptr %40, align 8
  %42 = lshr i32 %41, 4
  %43 = and i32 %42, 16
  %44 = icmp ne i32 %43, 0
  br i1 %44, label %45, label %57

45:                                               ; preds = %28
  %46 = load ptr, ptr %6, align 8, !tbaa !27
  %47 = getelementptr inbounds nuw %struct.commit, ptr %46, i32 0, i32 0
  %48 = load i32, ptr %47, align 8
  %49 = lshr i32 %48, 4
  %50 = and i32 %49, 32
  %51 = icmp ne i32 %50, 0
  br i1 %51, label %57, label %52

52:                                               ; preds = %45
  %53 = load ptr, ptr %5, align 8, !tbaa !15
  %54 = getelementptr inbounds nuw %struct.negotiation_state, ptr %53, i32 0, i32 1
  %55 = load i32, ptr %54, align 8, !tbaa !36
  %56 = add nsw i32 %55, -1
  store i32 %56, ptr %54, align 8, !tbaa !36
  br label %57

57:                                               ; preds = %52, %45, %28
  br label %58

58:                                               ; preds = %57, %24
  br label %59

59:                                               ; preds = %152, %150, %58
  %60 = call ptr @prio_queue_get(ptr noundef %9)
  store ptr %60, ptr %6, align 8, !tbaa !27
  %61 = icmp ne ptr %60, null
  br i1 %61, label %62, label %153

62:                                               ; preds = %59
  call void @llvm.lifetime.start.p0(i64 8, ptr %11) #6
  %63 = load ptr, ptr %6, align 8, !tbaa !27
  store ptr %63, ptr %11, align 8, !tbaa !34
  %64 = load ptr, ptr %11, align 8, !tbaa !34
  %65 = load i32, ptr %64, align 4
  %66 = lshr i32 %65, 4
  %67 = and i32 %66, 16
  %68 = icmp ne i32 %67, 0
  br i1 %68, label %72, label %69

69:                                               ; preds = %62
  %70 = load ptr, ptr %5, align 8, !tbaa !15
  %71 = load ptr, ptr %6, align 8, !tbaa !27
  call void @rev_list_push(ptr noundef %70, ptr noundef %71, i32 noundef 16)
  br label %149

72:                                               ; preds = %62
  call void @llvm.lifetime.start.p0(i64 8, ptr %12) #6
  %73 = load ptr, ptr %11, align 8, !tbaa !34
  %74 = load i32, ptr %73, align 4
  %75 = and i32 %74, 1
  %76 = icmp ne i32 %75, 0
  br i1 %76, label %87, label %77

77:                                               ; preds = %72
  %78 = load i32, ptr %8, align 4, !tbaa !24
  %79 = icmp ne i32 %78, 0
  br i1 %79, label %87, label %80

80:                                               ; preds = %77
  %81 = load ptr, ptr @the_repository, align 8, !tbaa !25
  %82 = load ptr, ptr %6, align 8, !tbaa !27
  %83 = call i32 @repo_parse_commit(ptr noundef %81, ptr noundef %82)
  %84 = icmp ne i32 %83, 0
  br i1 %84, label %85, label %86

85:                                               ; preds = %80
  store i32 2, ptr %10, align 4
  br label %146, !llvm.loop !37

86:                                               ; preds = %80
  br label %87

87:                                               ; preds = %86, %77, %72
  %88 = load ptr, ptr %6, align 8, !tbaa !27
  %89 = getelementptr inbounds nuw %struct.commit, ptr %88, i32 0, i32 2
  %90 = load ptr, ptr %89, align 8, !tbaa !39
  store ptr %90, ptr %12, align 8, !tbaa !45
  br label %91

91:                                               ; preds = %141, %87
  %92 = load ptr, ptr %12, align 8, !tbaa !45
  %93 = icmp ne ptr %92, null
  br i1 %93, label %94, label %145

94:                                               ; preds = %91
  call void @llvm.lifetime.start.p0(i64 8, ptr %13) #6
  %95 = load ptr, ptr %12, align 8, !tbaa !45
  %96 = getelementptr inbounds nuw %struct.commit_list, ptr %95, i32 0, i32 0
  %97 = load ptr, ptr %96, align 8, !tbaa !46
  store ptr %97, ptr %13, align 8, !tbaa !27
  %98 = load ptr, ptr %13, align 8, !tbaa !27
  %99 = getelementptr inbounds nuw %struct.commit, ptr %98, i32 0, i32 0
  %100 = load i32, ptr %99, align 8
  %101 = lshr i32 %100, 4
  %102 = and i32 %101, 4
  %103 = icmp ne i32 %102, 0
  br i1 %103, label %104, label %105

104:                                              ; preds = %94
  store i32 6, ptr %10, align 4
  br label %138

105:                                              ; preds = %94
  %106 = load ptr, ptr %13, align 8, !tbaa !27
  %107 = getelementptr inbounds nuw %struct.commit, ptr %106, i32 0, i32 0
  %108 = load i32, ptr %107, align 8
  %109 = lshr i32 %108, 4
  %110 = or i32 %109, 4
  %111 = load i32, ptr %107, align 8
  %112 = and i32 %110, 268435455
  %113 = shl i32 %112, 4
  %114 = and i32 %111, 15
  %115 = or i32 %114, %113
  store i32 %115, ptr %107, align 8
  %116 = load ptr, ptr %13, align 8, !tbaa !27
  %117 = getelementptr inbounds nuw %struct.commit, ptr %116, i32 0, i32 0
  %118 = load i32, ptr %117, align 8
  %119 = lshr i32 %118, 4
  %120 = and i32 %119, 16
  %121 = icmp ne i32 %120, 0
  br i1 %121, label %122, label %134

122:                                              ; preds = %105
  %123 = load ptr, ptr %13, align 8, !tbaa !27
  %124 = getelementptr inbounds nuw %struct.commit, ptr %123, i32 0, i32 0
  %125 = load i32, ptr %124, align 8
  %126 = lshr i32 %125, 4
  %127 = and i32 %126, 32
  %128 = icmp ne i32 %127, 0
  br i1 %128, label %134, label %129

129:                                              ; preds = %122
  %130 = load ptr, ptr %5, align 8, !tbaa !15
  %131 = getelementptr inbounds nuw %struct.negotiation_state, ptr %130, i32 0, i32 1
  %132 = load i32, ptr %131, align 8, !tbaa !36
  %133 = add nsw i32 %132, -1
  store i32 %133, ptr %131, align 8, !tbaa !36
  br label %134

134:                                              ; preds = %129, %122, %105
  %135 = load ptr, ptr %12, align 8, !tbaa !45
  %136 = getelementptr inbounds nuw %struct.commit_list, ptr %135, i32 0, i32 0
  %137 = load ptr, ptr %136, align 8, !tbaa !46
  call void @prio_queue_put(ptr noundef %9, ptr noundef %137)
  store i32 0, ptr %10, align 4
  br label %138

138:                                              ; preds = %134, %104
  call void @llvm.lifetime.end.p0(i64 8, ptr %13) #6
  %139 = load i32, ptr %10, align 4
  switch i32 %139, label %157 [
    i32 0, label %140
    i32 6, label %141
  ]

140:                                              ; preds = %138
  br label %141

141:                                              ; preds = %140, %138
  %142 = load ptr, ptr %12, align 8, !tbaa !45
  %143 = getelementptr inbounds nuw %struct.commit_list, ptr %142, i32 0, i32 1
  %144 = load ptr, ptr %143, align 8, !tbaa !48
  store ptr %144, ptr %12, align 8, !tbaa !45
  br label %91, !llvm.loop !49

145:                                              ; preds = %91
  store i32 0, ptr %10, align 4
  br label %146

146:                                              ; preds = %145, %85
  call void @llvm.lifetime.end.p0(i64 8, ptr %12) #6
  %147 = load i32, ptr %10, align 4
  switch i32 %147, label %150 [
    i32 0, label %148
  ]

148:                                              ; preds = %146
  br label %149

149:                                              ; preds = %148, %69
  store i32 0, ptr %10, align 4
  br label %150

150:                                              ; preds = %149, %146
  call void @llvm.lifetime.end.p0(i64 8, ptr %11) #6
  %151 = load i32, ptr %10, align 4
  switch i32 %151, label %157 [
    i32 0, label %152
    i32 2, label %59
  ]

152:                                              ; preds = %150
  br label %59, !llvm.loop !37

153:                                              ; preds = %59
  call void @clear_prio_queue(ptr noundef %9)
  store i32 0, ptr %10, align 4
  br label %154

154:                                              ; preds = %153, %23
  call void @llvm.lifetime.end.p0(i64 48, ptr %9) #6
  %155 = load i32, ptr %10, align 4
  switch i32 %155, label %157 [
    i32 0, label %156
    i32 1, label %156
  ]

156:                                              ; preds = %154, %154
  ret void

157:                                              ; preds = %154, %150, %138
  unreachable
}